; Function Attrs: mustprogress nounwind uwtable
define dso_local noundef ptr @_ZNK4llvm10StructType14getTypeAtIndexEPKNS_5ValueE(ptr noundef nonnull readonly align 8 captures(none) dereferenceable(32) %0, ptr noundef nonnull %1) local_unnamed_addr #1 align 2 {
  %3 = tail call noundef nonnull align 8 dereferenceable(12) ptr @_ZNK4llvm8Constant16getUniqueIntegerEv(ptr noundef nonnull align 8 dereferenceable(24) %1) #21
  %4 = getelementptr inbounds nuw i8, ptr %3, i64 8
  %5 = load i32, ptr %4, align 8
  %6 = icmp ult i32 %5, 65
  %7 = load ptr, ptr %3, align 8
  %.0.in.i = select i1 %6, ptr %3, ptr %7
  %.0.i = load i64, ptr %.0.in.i, align 8
  %8 = getelementptr inbounds nuw i8, ptr %0, i64 16
  %9 = load ptr, ptr %8, align 8
  %10 = and i64 %.0.i, 4294967295
  %11 = getelementptr inbounds nuw ptr, ptr %9, i64 %10
  %12 = load ptr, ptr %11, align 8
  ret ptr %12
}